; ModuleID = 'source-C-CXX/22/1084.c'
source_filename = "source-C-CXX/22/1084.c"
target datalayout = "e-m:e-p270:32:32-p271:32:32-p272:64:64-i64:64-f80:128-n8:16:32:64-S128"
target triple = "x86_64-pc-linux-gnu"

@.str = private unnamed_addr constant [4 x i8] c"%s \00", align 1
@.str.1 = private unnamed_addr constant [3 x i8] c"%s\00", align 1

; Function Attrs: nounwind sspstrong uwtable
define dso_local void @main() local_unnamed_addr #0 {
  %1 = alloca [9000 x i8], align 16
  %2 = alloca [100 x [10 x i8]], align 16
  %3 = getelementptr inbounds [9000 x i8], [9000 x i8]* %1, i64 0, i64 0
  call void @llvm.lifetime.start.p0i8(i64 9000, i8* nonnull %3) #6
  %4 = getelementptr inbounds [100 x [10 x i8]], [100 x [10 x i8]]* %2, i64 0, i64 0, i64 0
  call void @llvm.lifetime.start.p0i8(i64 1000, i8* nonnull %4) #6
  call void @llvm.memset.p0i8.i64(i8* noundef nonnull align 16 dereferenceable(1000) %4, i8 0, i64 1000, i1 false)
  %5 = call i32 (i8*, ...) bitcast (i32 (...)* @gets to i32 (i8*, ...)*)(i8* nonnull %3) #6
  %6 = call i64 @strlen(i8* noundef nonnull %3) #7
  %7 = trunc i64 %6 to i32
  %8 = icmp sgt i32 %7, 0
  br i1 %8, label %9, label %54

9:                                                ; preds = %0
  %10 = shl i64 %6, 32
  %11 = ashr exact i64 %10, 32
  br label %12

12:                                               ; preds = %9, %40
  %13 = phi i64 [ 0, %9 ], [ %42, %40 ]
  %14 = phi i32 [ 0, %9 ], [ %43, %40 ]
  %15 = sext i32 %14 to i64
  %16 = getelementptr inbounds [9000 x i8], [9000 x i8]* %1, i64 0, i64 %15
  %17 = load i8, i8* %16, align 1, !tbaa !5
  %18 = icmp ne i8 %17, 32
  %19 = icmp slt i32 %14, %7
  %20 = select i1 %18, i1 %19, i1 false
  br i1 %20, label %26, label %40

21:                                               ; preds = %40
  %22 = trunc i64 %42 to i32
  %23 = icmp sgt i32 %22, 1
  br i1 %23, label %24, label %54

24:                                               ; preds = %21
  %25 = and i64 %42, 4294967295
  br label %45

26:                                               ; preds = %12, %26
  %27 = phi i64 [ %31, %26 ], [ %15, %12 ]
  %28 = phi i64 [ %32, %26 ], [ 0, %12 ]
  %29 = phi i8 [ %34, %26 ], [ %17, %12 ]
  %30 = getelementptr inbounds [100 x [10 x i8]], [100 x [10 x i8]]* %2, i64 0, i64 %13, i64 %28
  store i8 %29, i8* %30, align 1, !tbaa !5
  %31 = add nsw i64 %27, 1
  %32 = add nuw nsw i64 %28, 1
  %33 = getelementptr inbounds [9000 x i8], [9000 x i8]* %1, i64 0, i64 %31
  %34 = load i8, i8* %33, align 1, !tbaa !5
  %35 = icmp ne i8 %34, 32
  %36 = icmp slt i64 %31, %11
  %37 = select i1 %35, i1 %36, i1 false
  br i1 %37, label %26, label %38, !llvm.loop !8

38:                                               ; preds = %26
  %39 = trunc i64 %31 to i32
  br label %40

40:                                               ; preds = %38, %12
  %41 = phi i32 [ %14, %12 ], [ %39, %38 ]
  %42 = add nuw i64 %13, 1
  %43 = add nsw i32 %41, 1
  %44 = icmp slt i32 %43, %7
  br i1 %44, label %12, label %21, !llvm.loop !10

45:                                               ; preds = %24, %45
  %46 = phi i64 [ %25, %24 ], [ %53, %45 ]
  %47 = phi i32 [ %22, %24 ], [ %48, %45 ]
  %48 = add nsw i32 %47, -1
  %49 = zext i32 %48 to i64
  %50 = getelementptr inbounds [100 x [10 x i8]], [100 x [10 x i8]]* %2, i64 0, i64 %49, i64 0
  %51 = call i32 (i8*, ...) @printf(i8* nonnull dereferenceable(1) getelementptr inbounds ([4 x i8], [4 x i8]* @.str, i64 0, i64 0), i8* nonnull %50)
  %52 = icmp sgt i64 %46, 2
  %53 = add nsw i64 %46, -1
  br i1 %52, label %45, label %54, !llvm.loop !11

54:                                               ; preds = %45, %0, %21
  %55 = call i32 (i8*, ...) @printf(i8* nonnull dereferenceable(1) getelementptr inbounds ([3 x i8], [3 x i8]* @.str.1, i64 0, i64 0), i8* nonnull %4)
  call void @llvm.lifetime.end.p0i8(i64 1000, i8* nonnull %4) #6
  call void @llvm.lifetime.end.p0i8(i64 9000, i8* nonnull %3) #6
  ret void
}

; Function Attrs: argmemonly mustprogress nofree nosync nounwind willreturn
declare void @llvm.lifetime.start.p0i8(i64 immarg, i8* nocapture) #1

; Function Attrs: argmemonly mustprogress nofree nounwind willreturn writeonly
declare void @llvm.memset.p0i8.i64(i8* nocapture writeonly, i8, i64, i1 immarg) #2

declare i32 @gets(...) local_unnamed_addr #3

; Function Attrs: argmemonly mustprogress nofree nounwind readonly willreturn
declare i64 @strlen(i8* nocapture) local_unnamed_addr #4

; Function Attrs: nofree nounwind
declare noundef i32 @printf(i8* nocapture noundef readonly, ...) local_unnamed_addr #5

; Function Attrs: argmemonly mustprogress nofree nosync nounwind willreturn
declare void @llvm.lifetime.end.p0i8(i64 immarg, i8* nocapture) #1


!llvm.module.flags = !{!0, !1, !2, !3}
!llvm.ident = !{!4}

!0 = !{i32 1, !"wchar_size", i32 4}
!1 = !{i32 7, !"PIC Level", i32 2}
!2 = !{i32 7, !"PIE Level", i32 2}
!3 = !{i32 7, !"uwtable", i32 1}
!4 = !{!"clang version 13.0.0"}
!5 = !{!6, !6, i64 0}
!6 = !{!"omnipotent char", !7, i64 0}
!7 = !{!"Simple C/C++ TBAA"}
!8 = distinct !{!8, !9}
!9 = !{!"llvm.loop.mustprogress"}
!10 = distinct !{!10, !9}
!11 = distinct !{!11, !9}
